; Function Attrs: nounwind uwtable
define ptr @l_Lake_Toml_optFn(ptr noundef %0, ptr noundef %1, ptr noundef %2) local_unnamed_addr #1 {
  %4 = tail call ptr @l_Lean_Parser_ParserState_stackSize(ptr noundef %2) #4
  %5 = getelementptr inbounds nuw i8, ptr %2, i64 24
  %6 = load ptr, ptr %5, align 8, !tbaa !10
  %7 = ptrtoint ptr %6 to i64
  %8 = and i64 %7, 1
  %.not = icmp eq i64 %8, 0
  br i1 %.not, label %9, label %lean_inc.exit34

9:                                                ; preds = %3
  %.val.i = load i32, ptr %6, align 4, !tbaa !4
  %10 = icmp sgt i32 %.val.i, 0
  br i1 %10, label %11, label %13, !prof !9

11:                                               ; preds = %9
  %12 = add nuw i32 %.val.i, 1
  store i32 %12, ptr %6, align 4, !tbaa !4
  br label %lean_inc.exit34

13:                                               ; preds = %9
  %.not.i45 = icmp eq i32 %.val.i, 0
  br i1 %.not.i45, label %lean_inc.exit34, label %14

14:                                               ; preds = %13
  tail call void @lean_inc_ref_cold(ptr noundef nonnull %6) #4
  br label %lean_inc.exit34

lean_inc.exit34:                                  ; preds = %14, %13, %11, %3
  %15 = tail call ptr @lean_apply_2(ptr noundef %0, ptr noundef %1, ptr noundef nonnull %2) #4
  %16 = getelementptr inbounds nuw i8, ptr %15, i64 40
  %17 = load ptr, ptr %16, align 8, !tbaa !10
  %18 = ptrtoint ptr %17 to i64
  %19 = and i64 %18, 1
  %.not56 = icmp eq i64 %19, 0
  br i1 %.not56, label %20, label %lean_inc.exit33

20:                                               ; preds = %lean_inc.exit34
  %.val.i46 = load i32, ptr %17, align 4, !tbaa !4
  %21 = icmp sgt i32 %.val.i46, 0
  br i1 %21, label %22, label %24, !prof !9

22:                                               ; preds = %20
  %23 = add nuw i32 %.val.i46, 1
  store i32 %23, ptr %17, align 4, !tbaa !4
  br label %lean_inc.exit33

24:                                               ; preds = %20
  %.not.i47 = icmp eq i32 %.val.i46, 0
  br i1 %.not.i47, label %lean_inc.exit33, label %25

25:                                               ; preds = %24
  tail call void @lean_inc_ref_cold(ptr noundef nonnull %17) #4
  br label %lean_inc.exit33

lean_inc.exit33:                                  ; preds = %25, %24, %22, %lean_inc.exit34
  %26 = tail call zeroext i8 @l_Option_beqOption____x40_Init_Data_Option_Basic___hyg_160____at_Lean_Parser_ParserState_hasError___spec__1(ptr noundef %17, ptr noundef nonnull inttoptr (i64 1 to ptr)) #4
  %27 = icmp eq i8 %26, 0
  br i1 %27, label %28, label %75

28:                                               ; preds = %lean_inc.exit33
  %29 = getelementptr inbounds nuw i8, ptr %15, i64 24
  %30 = load ptr, ptr %29, align 8, !tbaa !10
  %31 = ptrtoint ptr %30 to i64
  %32 = and i64 %31, 1
  %.not58 = icmp eq i64 %32, 0
  br i1 %.not58, label %33, label %lean_inc.exit

33:                                               ; preds = %28
  %.val.i49 = load i32, ptr %30, align 4, !tbaa !4
  %34 = icmp sgt i32 %.val.i49, 0
  br i1 %34, label %35, label %37, !prof !9

35:                                               ; preds = %33
  %36 = add nuw i32 %.val.i49, 1
  store i32 %36, ptr %30, align 4, !tbaa !4
  br label %39

37:                                               ; preds = %33
  %.not.i50 = icmp eq i32 %.val.i49, 0
  br i1 %.not.i50, label %39, label %38

38:                                               ; preds = %37
  tail call void @lean_inc_ref_cold(ptr noundef nonnull %30) #4
  br label %39

lean_inc.exit:                                    ; preds = %28
  br i1 %.not, label %lean_dec.exit32.thread, label %lean_dec.exit32.thread54, !prof !15

39:                                               ; preds = %35, %37, %38
  %40 = tail call zeroext i1 @lean_nat_big_eq(ptr noundef nonnull %30, ptr noundef %6) #4
  %41 = load i32, ptr %30, align 4, !tbaa !4
  %42 = icmp sgt i32 %41, 1
  br i1 %42, label %43, label %45, !prof !9

43:                                               ; preds = %39
  %44 = add nsw i32 %41, -1
  store i32 %44, ptr %30, align 4, !tbaa !4
  br label %lean_dec.exit32

45:                                               ; preds = %39
  %.not.i = icmp eq i32 %41, 0
  br i1 %.not.i, label %lean_dec.exit32, label %46

46:                                               ; preds = %45
  tail call void @lean_dec_ref_cold(ptr noundef nonnull %30) #4
  br label %lean_dec.exit32

lean_dec.exit32:                                  ; preds = %46, %45, %43
  br i1 %40, label %64, label %48

lean_dec.exit32.thread54:                         ; preds = %lean_inc.exit
  %.not59 = icmp eq ptr %30, %6
  br i1 %.not59, label %64, label %lean_dec.exit31

lean_dec.exit32.thread:                           ; preds = %lean_inc.exit
  %47 = tail call zeroext i1 @lean_nat_big_eq(ptr noundef %30, ptr noundef %6) #4
  br i1 %47, label %64, label %.thread

48:                                               ; preds = %lean_dec.exit32
  br i1 %.not, label %.thread, label %lean_dec.exit31

.thread:                                          ; preds = %lean_dec.exit32.thread, %48
  %49 = load i32, ptr %6, align 4, !tbaa !4
  %50 = icmp sgt i32 %49, 1
  br i1 %50, label %51, label %53, !prof !9

51:                                               ; preds = %.thread
  %52 = add nsw i32 %49, -1
  store i32 %52, ptr %6, align 4, !tbaa !4
  br label %lean_dec.exit31

53:                                               ; preds = %.thread
  %.not.i35 = icmp eq i32 %49, 0
  br i1 %.not.i35, label %lean_dec.exit31, label %54

54:                                               ; preds = %53
  tail call void @lean_dec_ref_cold(ptr noundef nonnull %6) #4
  br label %lean_dec.exit31

lean_dec.exit31:                                  ; preds = %lean_dec.exit32.thread54, %54, %53, %51, %48
  %55 = ptrtoint ptr %4 to i64
  %56 = and i64 %55, 1
  %.not61 = icmp eq i64 %56, 0
  br i1 %.not61, label %57, label %lean_dec.exit30

57:                                               ; preds = %lean_dec.exit31
  %58 = load i32, ptr %4, align 4, !tbaa !4
  %59 = icmp sgt i32 %58, 1
  br i1 %59, label %60, label %62, !prof !9

60:                                               ; preds = %57
  %61 = add nsw i32 %58, -1
  store i32 %61, ptr %4, align 4, !tbaa !4
  br label %lean_dec.exit30

62:                                               ; preds = %57
  %.not.i37 = icmp eq i32 %58, 0
  br i1 %.not.i37, label %lean_dec.exit30, label %63

63:                                               ; preds = %62
  tail call void @lean_dec_ref_cold(ptr noundef nonnull %4) #4
  br label %lean_dec.exit30

64:                                               ; preds = %lean_dec.exit32.thread54, %lean_dec.exit32.thread, %lean_dec.exit32
  %65 = tail call ptr @l_Lean_Parser_ParserState_restore(ptr noundef nonnull %15, ptr noundef %4, ptr noundef %6) #4
  %66 = ptrtoint ptr %4 to i64
  %67 = and i64 %66, 1
  %.not60 = icmp eq i64 %67, 0
  br i1 %.not60, label %68, label %lean_dec.exit30

68:                                               ; preds = %64
  %69 = load i32, ptr %4, align 4, !tbaa !4
  %70 = icmp sgt i32 %69, 1
  br i1 %70, label %71, label %73, !prof !9

71:                                               ; preds = %68
  %72 = add nsw i32 %69, -1
  store i32 %72, ptr %4, align 4, !tbaa !4
  br label %lean_dec.exit30

73:                                               ; preds = %68
  %.not.i39 = icmp eq i32 %69, 0
  br i1 %.not.i39, label %lean_dec.exit30, label %74

74:                                               ; preds = %73
  tail call void @lean_dec_ref_cold(ptr noundef nonnull %4) #4
  br label %lean_dec.exit30

75:                                               ; preds = %lean_inc.exit33
  br i1 %.not, label %76, label %lean_dec.exit28

76:                                               ; preds = %75
  %77 = load i32, ptr %6, align 4, !tbaa !4
  %78 = icmp sgt i32 %77, 1
  br i1 %78, label %79, label %81, !prof !9

79:                                               ; preds = %76
  %80 = add nsw i32 %77, -1
  store i32 %80, ptr %6, align 4, !tbaa !4
  br label %lean_dec.exit28

81:                                               ; preds = %76
  %.not.i41 = icmp eq i32 %77, 0
  br i1 %.not.i41, label %lean_dec.exit28, label %82

82:                                               ; preds = %81
  tail call void @lean_dec_ref_cold(ptr noundef nonnull %6) #4
  br label %lean_dec.exit28

lean_dec.exit28:                                  ; preds = %82, %81, %79, %75
  %83 = ptrtoint ptr %4 to i64
  %84 = and i64 %83, 1
  %.not57 = icmp eq i64 %84, 0
  br i1 %.not57, label %85, label %lean_dec.exit30

85:                                               ; preds = %lean_dec.exit28
  %86 = load i32, ptr %4, align 4, !tbaa !4
  %87 = icmp sgt i32 %86, 1
  br i1 %87, label %88, label %90, !prof !9

88:                                               ; preds = %85
  %89 = add nsw i32 %86, -1
  store i32 %89, ptr %4, align 4, !tbaa !4
  br label %lean_dec.exit30

90:                                               ; preds = %85
  %.not.i43 = icmp eq i32 %86, 0
  br i1 %.not.i43, label %lean_dec.exit30, label %91

91:                                               ; preds = %90
  tail call void @lean_dec_ref_cold(ptr noundef nonnull %4) #4
  br label %lean_dec.exit30

lean_dec.exit30:                                  ; preds = %lean_dec.exit28, %88, %90, %91, %64, %71, %73, %74, %lean_dec.exit31, %60, %62, %63
  %.1 = phi ptr [ %15, %63 ], [ %15, %62 ], [ %15, %60 ], [ %15, %lean_dec.exit31 ], [ %65, %74 ], [ %65, %73 ], [ %65, %71 ], [ %65, %64 ], [ %15, %91 ], [ %15, %90 ], [ %15, %88 ], [ %15, %lean_dec.exit28 ]
  ret ptr %.1
}